target datalayout = "e-m:e-p270:32:32-p271:32:32-p272:64:64-i64:64-i128:128-f80:128-n8:16:32:64-S128"
target triple = "x86_64-pc-linux-gnu"

%struct.ge25519_p3 = type { [5 x i64], [5 x i64], [5 x i64], [5 x i64] }

; Function Attrs: alwaysinline nounwind
define internal ptr @memset.inline(ptr nonnull %0, i32 %1, i64 %2) #3 {
  %4 = alloca ptr, align 8
  %5 = alloca i32, align 4
  %6 = alloca i64, align 8
  store ptr %0, ptr %4, align 8
  store i32 %1, ptr %5, align 4
  store i64 %2, ptr %6, align 8
  %7 = load ptr, ptr %4, align 8
  %8 = load i32, ptr %5, align 4
  %9 = load i64, ptr %6, align 8
  %10 = load ptr, ptr %4, align 8
  %11 = call i64 @llvm.objectsize.i64.p0(ptr %10, i1 false, i1 true, i1 true)
  %12 = call ptr @__memset_chk(ptr noundef %7, i32 noundef %8, i64 noundef %9, i64 noundef %11) #8
  ret ptr %12
}

; Function Attrs: alwaysinline nounwind
define internal ptr @memcpy.inline(ptr noalias nonnull %0, ptr noalias nonnull %1, i64 %2) #3 {
  %4 = alloca ptr, align 8
  %5 = alloca ptr, align 8
  %6 = alloca i64, align 8
  store ptr %0, ptr %4, align 8
  store ptr %1, ptr %5, align 8
  store i64 %2, ptr %6, align 8
  %7 = load ptr, ptr %4, align 8
  %8 = load ptr, ptr %5, align 8
  %9 = load i64, ptr %6, align 8
  %10 = load ptr, ptr %4, align 8
  %11 = call i64 @llvm.objectsize.i64.p0(ptr %10, i1 false, i1 true, i1 true)
  %12 = call ptr @__memcpy_chk(ptr noundef %7, ptr noundef %8, i64 noundef %9, i64 noundef %11) #8
  ret ptr %12
}

; Function Attrs: nounwind ssp uwtable
define internal void @fe25519_sub(ptr noundef %0, ptr noundef %1, ptr noundef %2) #0 {
  %4 = alloca ptr, align 8
  %5 = alloca ptr, align 8
  %6 = alloca ptr, align 8
  %7 = alloca i64, align 8
  %8 = alloca i64, align 8
  %9 = alloca i64, align 8
  %10 = alloca i64, align 8
  %11 = alloca i64, align 8
  %12 = alloca i64, align 8
  store ptr %0, ptr %4, align 8
  store ptr %1, ptr %5, align 8
  store ptr %2, ptr %6, align 8
  call void @llvm.lifetime.start.p0(i64 8, ptr %7) #8
  store i64 2251799813685247, ptr %7, align 8
  call void @llvm.lifetime.start.p0(i64 8, ptr %8) #8
  call void @llvm.lifetime.start.p0(i64 8, ptr %9) #8
  call void @llvm.lifetime.start.p0(i64 8, ptr %10) #8
  call void @llvm.lifetime.start.p0(i64 8, ptr %11) #8
  call void @llvm.lifetime.start.p0(i64 8, ptr %12) #8
  %13 = load ptr, ptr %6, align 8
  %14 = getelementptr i64, ptr %13, i64 0
  %15 = load i64, ptr %14, align 8
  store i64 %15, ptr %8, align 8
  %16 = load ptr, ptr %6, align 8
  %17 = getelementptr i64, ptr %16, i64 1
  %18 = load i64, ptr %17, align 8
  store i64 %18, ptr %9, align 8
  %19 = load ptr, ptr %6, align 8
  %20 = getelementptr i64, ptr %19, i64 2
  %21 = load i64, ptr %20, align 8
  store i64 %21, ptr %10, align 8
  %22 = load ptr, ptr %6, align 8
  %23 = getelementptr i64, ptr %22, i64 3
  %24 = load i64, ptr %23, align 8
  store i64 %24, ptr %11, align 8
  %25 = load ptr, ptr %6, align 8
  %26 = getelementptr i64, ptr %25, i64 4
  %27 = load i64, ptr %26, align 8
  store i64 %27, ptr %12, align 8
  %28 = load i64, ptr %8, align 8
  %29 = lshr i64 %28, 51
  %30 = load i64, ptr %9, align 8
  %31 = add i64 %30, %29
  store i64 %31, ptr %9, align 8
  %32 = load i64, ptr %8, align 8
  %33 = and i64 %32, 2251799813685247
  store i64 %33, ptr %8, align 8
  %34 = load i64, ptr %9, align 8
  %35 = lshr i64 %34, 51
  %36 = load i64, ptr %10, align 8
  %37 = add i64 %36, %35
  store i64 %37, ptr %10, align 8
  %38 = load i64, ptr %9, align 8
  %39 = and i64 %38, 2251799813685247
  store i64 %39, ptr %9, align 8
  %40 = load i64, ptr %10, align 8
  %41 = lshr i64 %40, 51
  %42 = load i64, ptr %11, align 8
  %43 = add i64 %42, %41
  store i64 %43, ptr %11, align 8
  %44 = load i64, ptr %10, align 8
  %45 = and i64 %44, 2251799813685247
  store i64 %45, ptr %10, align 8
  %46 = load i64, ptr %11, align 8
  %47 = lshr i64 %46, 51
  %48 = load i64, ptr %12, align 8
  %49 = add i64 %48, %47
  store i64 %49, ptr %12, align 8
  %50 = load i64, ptr %11, align 8
  %51 = and i64 %50, 2251799813685247
  store i64 %51, ptr %11, align 8
  %52 = load i64, ptr %12, align 8
  %53 = lshr i64 %52, 51
  %54 = mul i64 19, %53
  %55 = load i64, ptr %8, align 8
  %56 = add i64 %55, %54
  store i64 %56, ptr %8, align 8
  %57 = load i64, ptr %12, align 8
  %58 = and i64 %57, 2251799813685247
  store i64 %58, ptr %12, align 8
  %59 = load ptr, ptr %5, align 8
  %60 = getelementptr i64, ptr %59, i64 0
  %61 = load i64, ptr %60, align 8
  %62 = add i64 %61, 4503599627370458
  %63 = load i64, ptr %8, align 8
  %64 = sub i64 %62, %63
  store i64 %64, ptr %8, align 8
  %65 = load ptr, ptr %5, align 8
  %66 = getelementptr i64, ptr %65, i64 1
  %67 = load i64, ptr %66, align 8
  %68 = add i64 %67, 4503599627370494
  %69 = load i64, ptr %9, align 8
  %70 = sub i64 %68, %69
  store i64 %70, ptr %9, align 8
  %71 = load ptr, ptr %5, align 8
  %72 = getelementptr i64, ptr %71, i64 2
  %73 = load i64, ptr %72, align 8
  %74 = add i64 %73, 4503599627370494
  %75 = load i64, ptr %10, align 8
  %76 = sub i64 %74, %75
  store i64 %76, ptr %10, align 8
  %77 = load ptr, ptr %5, align 8
  %78 = getelementptr i64, ptr %77, i64 3
  %79 = load i64, ptr %78, align 8
  %80 = add i64 %79, 4503599627370494
  %81 = load i64, ptr %11, align 8
  %82 = sub i64 %80, %81
  store i64 %82, ptr %11, align 8
  %83 = load ptr, ptr %5, align 8
  %84 = getelementptr i64, ptr %83, i64 4
  %85 = load i64, ptr %84, align 8
  %86 = add i64 %85, 4503599627370494
  %87 = load i64, ptr %12, align 8
  %88 = sub i64 %86, %87
  store i64 %88, ptr %12, align 8
  %89 = load i64, ptr %8, align 8
  %90 = load ptr, ptr %4, align 8
  %91 = getelementptr i64, ptr %90, i64 0
  store i64 %89, ptr %91, align 8
  %92 = load i64, ptr %9, align 8
  %93 = load ptr, ptr %4, align 8
  %94 = getelementptr i64, ptr %93, i64 1
  store i64 %92, ptr %94, align 8
  %95 = load i64, ptr %10, align 8
  %96 = load ptr, ptr %4, align 8
  %97 = getelementptr i64, ptr %96, i64 2
  store i64 %95, ptr %97, align 8
  %98 = load i64, ptr %11, align 8
  %99 = load ptr, ptr %4, align 8
  %100 = getelementptr i64, ptr %99, i64 3
  store i64 %98, ptr %100, align 8
  %101 = load i64, ptr %12, align 8
  %102 = load ptr, ptr %4, align 8
  %103 = getelementptr i64, ptr %102, i64 4
  store i64 %101, ptr %103, align 8
  call void @llvm.lifetime.end.p0(i64 8, ptr %12) #8
  call void @llvm.lifetime.end.p0(i64 8, ptr %11) #8
  call void @llvm.lifetime.end.p0(i64 8, ptr %10) #8
  call void @llvm.lifetime.end.p0(i64 8, ptr %9) #8
  call void @llvm.lifetime.end.p0(i64 8, ptr %8) #8
  call void @llvm.lifetime.end.p0(i64 8, ptr %7) #8
  ret void
}

; Function Attrs: inlinehint nounwind ssp uwtable
define internal void @fe25519_0(ptr noundef %0) #2 {
  %2 = alloca ptr, align 8
  store ptr %0, ptr %2, align 8
  %3 = load ptr, ptr %2, align 8
  %4 = getelementptr i64, ptr %3, i64 0
  %5 = call ptr @memset.inline(ptr noundef %4, i32 noundef 0, i64 noundef 40) #8
  ret void
}

; Function Attrs: inlinehint nounwind ssp uwtable
define internal void @fe25519_copy(ptr noundef %0, ptr noundef %1) #2 {
  %3 = alloca ptr, align 8
  %4 = alloca ptr, align 8
  store ptr %0, ptr %3, align 8
  store ptr %1, ptr %4, align 8
  %5 = load ptr, ptr %3, align 8
  %6 = load ptr, ptr %4, align 8
  %7 = call ptr @memcpy.inline(ptr noundef %5, ptr noundef %6, i64 noundef 40) #8
  ret void
}

; Function Attrs: inlinehint nounwind ssp uwtable
define internal void @fe25519_neg(ptr noundef %0, ptr noundef %1) #2 {
  %3 = alloca ptr, align 8
  %4 = alloca ptr, align 8
  %5 = alloca [5 x i64], align 16
  store ptr %0, ptr %3, align 8
  store ptr %1, ptr %4, align 8
  call void @llvm.lifetime.start.p0(i64 40, ptr %5) #8
  %6 = getelementptr inbounds [5 x i64], ptr %5, i64 0, i64 0
  call void @fe25519_0(ptr noundef %6)
  %7 = load ptr, ptr %3, align 8
  %8 = getelementptr inbounds [5 x i64], ptr %5, i64 0, i64 0
  %9 = load ptr, ptr %4, align 8
  call void @fe25519_sub(ptr noundef %7, ptr noundef %8, ptr noundef %9)
  call void @llvm.lifetime.end.p0(i64 40, ptr %5) #8
  ret void
}

; Function Attrs: nounwind ssp uwtable
define internal void @ge25519_p3_neg(ptr noundef %0, ptr noundef %1) #0 {
  %3 = alloca ptr, align 8
  %4 = alloca ptr, align 8
  store ptr %0, ptr %3, align 8
  store ptr %1, ptr %4, align 8
  %5 = load ptr, ptr %3, align 8
  %6 = getelementptr inbounds nuw %struct.ge25519_p3, ptr %5, i32 0, i32 0
  %7 = getelementptr inbounds [5 x i64], ptr %6, i64 0, i64 0
  %8 = load ptr, ptr %4, align 8
  %9 = getelementptr inbounds nuw %struct.ge25519_p3, ptr %8, i32 0, i32 0
  %10 = getelementptr inbounds [5 x i64], ptr %9, i64 0, i64 0
  call void @fe25519_neg(ptr noundef %7, ptr noundef %10)
  %11 = load ptr, ptr %3, align 8
  %12 = getelementptr inbounds nuw %struct.ge25519_p3, ptr %11, i32 0, i32 1
  %13 = getelementptr inbounds [5 x i64], ptr %12, i64 0, i64 0
  %14 = load ptr, ptr %4, align 8
  %15 = getelementptr inbounds nuw %struct.ge25519_p3, ptr %14, i32 0, i32 1
  %16 = getelementptr inbounds [5 x i64], ptr %15, i64 0, i64 0
  call void @fe25519_copy(ptr noundef %13, ptr noundef %16)
  %17 = load ptr, ptr %3, align 8
  %18 = getelementptr inbounds nuw %struct.ge25519_p3, ptr %17, i32 0, i32 2
  %19 = getelementptr inbounds [5 x i64], ptr %18, i64 0, i64 0
  %20 = load ptr, ptr %4, align 8
  %21 = getelementptr inbounds nuw %struct.ge25519_p3, ptr %20, i32 0, i32 2
  %22 = getelementptr inbounds [5 x i64], ptr %21, i64 0, i64 0
  call void @fe25519_copy(ptr noundef %19, ptr noundef %22)
  %23 = load ptr, ptr %3, align 8
  %24 = getelementptr inbounds nuw %struct.ge25519_p3, ptr %23, i32 0, i32 3
  %25 = getelementptr inbounds [5 x i64], ptr %24, i64 0, i64 0
  %26 = load ptr, ptr %4, align 8
  %27 = getelementptr inbounds nuw %struct.ge25519_p3, ptr %26, i32 0, i32 3
  %28 = getelementptr inbounds [5 x i64], ptr %27, i64 0, i64 0
  call void @fe25519_neg(ptr noundef %25, ptr noundef %28)
  ret void
}

; Function Attrs: nounwind ssp uwtable
define hidden void @_sodium_ge25519_p3_sub(ptr noundef %0, ptr noundef %1, ptr noundef %2) #0 {
  %4 = alloca ptr, align 8
  %5 = alloca ptr, align 8
  %6 = alloca ptr, align 8
  %7 = alloca %struct.ge25519_p3, align 8
  store ptr %0, ptr %4, align 8
  store ptr %1, ptr %5, align 8
  store ptr %2, ptr %6, align 8
  call void @llvm.lifetime.start.p0(i64 160, ptr %7) #8
  %8 = load ptr, ptr %6, align 8
  call void @ge25519_p3_neg(ptr noundef %7, ptr noundef %8)
  %9 = load ptr, ptr %4, align 8
  %10 = load ptr, ptr %5, align 8
  call void @_sodium_ge25519_p3_add(ptr noundef %9, ptr noundef %10, ptr noundef %7)
  call void @llvm.lifetime.end.p0(i64 160, ptr %7) #8
  ret void
}