; Function Attrs: mustprogress nofree norecurse nosync nounwind ssp willreturn memory(argmem: readwrite) uwtable
define hidden void @_sodium_ge25519_p3_sub(ptr noundef writeonly captures(none) initializes((0, 160)) %0, ptr noundef readonly captures(none) %1, ptr noundef readonly captures(none) %2) local_unnamed_addr #0 {
  %4 = alloca %struct.ge25519_p3, align 8
  call void @llvm.lifetime.start.p0(i64 160, ptr nonnull %4) #12
  %5 = load i64, ptr %2, align 8
  %6 = getelementptr i8, ptr %2, i64 8
  %7 = load i64, ptr %6, align 8
  %8 = getelementptr i8, ptr %2, i64 16
  %9 = load i64, ptr %8, align 8
  %10 = getelementptr i8, ptr %2, i64 24
  %11 = load i64, ptr %10, align 8
  %12 = getelementptr i8, ptr %2, i64 32
  %13 = load i64, ptr %12, align 8
  %14 = lshr i64 %5, 51
  %15 = add i64 %7, %14
  %16 = and i64 %5, 2251799813685247
  %17 = lshr i64 %15, 51
  %18 = add i64 %17, %9
  %19 = and i64 %15, 2251799813685247
  %20 = lshr i64 %18, 51
  %21 = add i64 %20, %11
  %22 = and i64 %18, 2251799813685247
  %23 = lshr i64 %21, 51
  %24 = add i64 %23, %13
  %25 = and i64 %21, 2251799813685247
  %26 = lshr i64 %24, 51
  %27 = and i64 %24, 2251799813685247
  %.neg39.i.i.i = mul nsw i64 %26, -19
  %reass.sub = sub nsw i64 %.neg39.i.i.i, %16
  %28 = add nsw i64 %reass.sub, 4503599627370458
  %29 = sub nuw nsw i64 4503599627370494, %19
  %30 = sub nuw nsw i64 4503599627370494, %22
  %31 = sub nuw nsw i64 4503599627370494, %25
  %32 = sub nuw nsw i64 4503599627370494, %27
  store i64 %28, ptr %4, align 8
  %33 = getelementptr inbounds nuw i8, ptr %4, i64 8
  store i64 %29, ptr %33, align 8
  %34 = getelementptr inbounds nuw i8, ptr %4, i64 16
  store i64 %30, ptr %34, align 8
  %35 = getelementptr inbounds nuw i8, ptr %4, i64 24
  store i64 %31, ptr %35, align 8
  %36 = getelementptr inbounds nuw i8, ptr %4, i64 32
  store i64 %32, ptr %36, align 8
  %37 = getelementptr inbounds nuw i8, ptr %4, i64 40
  %38 = getelementptr inbounds nuw i8, ptr %2, i64 40
  call void @llvm.memcpy.p0.p0.i64(ptr noundef nonnull align 8 dereferenceable(40) %37, ptr noundef nonnull readonly align 1 dereferenceable(40) %38, i64 noundef 40, i1 noundef false) #12
  %39 = getelementptr inbounds nuw i8, ptr %4, i64 80
  %40 = getelementptr inbounds nuw i8, ptr %2, i64 80
  call void @llvm.memcpy.p0.p0.i64(ptr noundef nonnull align 8 dereferenceable(40) %39, ptr noundef nonnull readonly align 1 dereferenceable(40) %40, i64 noundef 40, i1 noundef false) #12
  %41 = getelementptr inbounds nuw i8, ptr %4, i64 120
  %42 = getelementptr inbounds nuw i8, ptr %2, i64 120
  %43 = load i64, ptr %42, align 8
  %44 = getelementptr i8, ptr %2, i64 128
  %45 = load i64, ptr %44, align 8
  %46 = getelementptr i8, ptr %2, i64 136
  %47 = load i64, ptr %46, align 8
  %48 = getelementptr i8, ptr %2, i64 144
  %49 = load i64, ptr %48, align 8
  %50 = getelementptr i8, ptr %2, i64 152
  %51 = load i64, ptr %50, align 8
  %52 = lshr i64 %43, 51
  %53 = add i64 %45, %52
  %54 = and i64 %43, 2251799813685247
  %55 = lshr i64 %53, 51
  %56 = add i64 %55, %47
  %57 = and i64 %53, 2251799813685247
  %58 = lshr i64 %56, 51
  %59 = add i64 %58, %49
  %60 = and i64 %56, 2251799813685247
  %61 = lshr i64 %59, 51
  %62 = add i64 %61, %51
  %63 = and i64 %59, 2251799813685247
  %64 = lshr i64 %62, 51
  %65 = and i64 %62, 2251799813685247
  %.neg39.i.i8.i = mul nsw i64 %64, -19
  %reass.sub4 = sub nsw i64 %.neg39.i.i8.i, %54
  %66 = add nsw i64 %reass.sub4, 4503599627370458
  %67 = sub nuw nsw i64 4503599627370494, %57
  %68 = sub nuw nsw i64 4503599627370494, %60
  %69 = sub nuw nsw i64 4503599627370494, %63
  %70 = sub nuw nsw i64 4503599627370494, %65
  store i64 %66, ptr %41, align 8
  %71 = getelementptr inbounds nuw i8, ptr %4, i64 128
  store i64 %67, ptr %71, align 8
  %72 = getelementptr inbounds nuw i8, ptr %4, i64 136
  store i64 %68, ptr %72, align 8
  %73 = getelementptr inbounds nuw i8, ptr %4, i64 144
  store i64 %69, ptr %73, align 8
  %74 = getelementptr inbounds nuw i8, ptr %4, i64 152
  store i64 %70, ptr %74, align 8
  call void @_sodium_ge25519_p3_add(ptr noundef %0, ptr noundef %1, ptr noundef nonnull %4)
  call void @llvm.lifetime.end.p0(i64 160, ptr nonnull %4) #12
  ret void
}